; ModuleID = '54/1107.c'
source_filename = "54/1107.c"
target datalayout = "e-m:e-p270:32:32-p271:32:32-p272:64:64-i64:64-f80:128-n8:16:32:64-S128"
target triple = "x86_64-pc-linux-gnu"

@.str = private unnamed_addr constant [5 x i8] c"%d%d\00", align 1
@.str.1 = private unnamed_addr constant [3 x i8] c"%d\00", align 1

; Function Attrs: noinline nounwind uwtable
define dso_local i32 @depart(i32 %0, i32 %1) #0 {
  %3 = alloca i32, align 4
  %4 = alloca i32, align 4
  %5 = alloca i32, align 4
  %6 = alloca i32, align 4
  %7 = alloca i32, align 4
  store i32 %0, i32* %3, align 4
  store i32 %1, i32* %4, align 4
  store i32 1, i32* %6, align 4
  br label %8

8:                                                ; preds = %41, %2
  %9 = load i32, i32* %6, align 4
  store i32 %9, i32* %7, align 4
  store i32 0, i32* %5, align 4
  br label %10

10:                                               ; preds = %37, %8
  %11 = load i32, i32* %7, align 4
  %12 = load i32, i32* %3, align 4
  %13 = srem i32 %11, %12
  %14 = load i32, i32* %4, align 4
  %15 = icmp eq i32 %13, %14
  br i1 %15, label %16, label %28

16:                                               ; preds = %10
  %17 = load i32, i32* %7, align 4
  %18 = load i32, i32* %3, align 4
  %19 = sdiv i32 %17, %18
  %20 = icmp sgt i32 %19, 0
  br i1 %20, label %21, label %28

21:                                               ; preds = %16
  %22 = load i32, i32* %7, align 4
  %23 = load i32, i32* %3, align 4
  %24 = sdiv i32 %22, %23
  %25 = load i32, i32* %3, align 4
  %26 = sub nsw i32 %25, 1
  %27 = mul nsw i32 %24, %26
  store i32 %27, i32* %7, align 4
  br label %29

28:                                               ; preds = %16, %10
  br label %40

29:                                               ; preds = %21
  %30 = load i32, i32* %5, align 4
  %31 = load i32, i32* %3, align 4
  %32 = sub nsw i32 %31, 1
  %33 = icmp eq i32 %30, %32
  br i1 %33, label %34, label %36

34:                                               ; preds = %29
  %35 = load i32, i32* %6, align 4
  ret i32 %35

36:                                               ; preds = %29
  br label %37

37:                                               ; preds = %36
  %38 = load i32, i32* %5, align 4
  %39 = add nsw i32 %38, 1
  store i32 %39, i32* %5, align 4
  br label %10

40:                                               ; preds = %28
  br label %41

41:                                               ; preds = %40
  %42 = load i32, i32* %6, align 4
  %43 = add nsw i32 %42, 1
  store i32 %43, i32* %6, align 4
  br label %8
}

; Function Attrs: noinline nounwind uwtable
define dso_local void @main() #0 {
  %1 = alloca i32, align 4
  %2 = alloca i32, align 4
  %3 = alloca i32, align 4
  %4 = call i32 (i8*, ...) @__isoc99_scanf(i8* getelementptr inbounds ([5 x i8], [5 x i8]* @.str, i64 0, i64 0), i32* %1, i32* %2)
  %5 = load i32, i32* %1, align 4
  %6 = load i32, i32* %2, align 4
  %7 = call i32 @depart(i32 %5, i32 %6)
  store i32 %7, i32* %3, align 4
  %8 = load i32, i32* %3, align 4
  %9 = call i32 (i8*, ...) @printf(i8* getelementptr inbounds ([3 x i8], [3 x i8]* @.str.1, i64 0, i64 0), i32 %8)
  ret void
}

declare dso_local i32 @__isoc99_scanf(i8*, ...) #1

declare dso_local i32 @printf(i8*, ...) #1


!llvm.module.flags = !{!0}
!llvm.ident = !{!1}

!0 = !{i32 1, !"wchar_size", i32 4}
!1 = !{!"clang version 10.0.0-4ubuntu1 "}
